; ModuleID = '27/832.c'
source_filename = "27/832.c"
target datalayout = "e-m:e-p270:32:32-p271:32:32-p272:64:64-i64:64-f80:128-n8:16:32:64-S128"
target triple = "x86_64-pc-linux-gnu"

@.str = private unnamed_addr constant [3 x i8] c"%d\00", align 1
@.str.1 = private unnamed_addr constant [7 x i8] c"%f%f%f\00", align 1
@.str.2 = private unnamed_addr constant [12 x i8] c"x1=x2=%.5f\0A\00", align 1
@.str.3 = private unnamed_addr constant [17 x i8] c"x1=%.5f;x2=%.5f\0A\00", align 1
@.str.4 = private unnamed_addr constant [35 x i8] c"x1=0.00000+%.5fi;x2=0.00000-%.5fi\0A\00", align 1
@.str.5 = private unnamed_addr constant [29 x i8] c"x1=%.5f+%.5fi;x2=%.5f-%.5fi\0A\00", align 1

; Function Attrs: noinline nounwind uwtable
define dso_local i32 @main() #0 {
  %1 = alloca i32, align 4
  %2 = alloca i32, align 4
  %3 = alloca i32, align 4
  %4 = alloca [100 x float], align 16
  %5 = alloca [100 x float], align 16
  %6 = alloca [100 x float], align 16
  %7 = alloca double, align 8
  %8 = alloca double, align 8
  %9 = alloca double, align 8
  %10 = alloca double, align 8
  %11 = alloca double, align 8
  store i32 0, i32* %1, align 4
  %12 = call i32 (i8*, ...) @__isoc99_scanf(i8* getelementptr inbounds ([3 x i8], [3 x i8]* @.str, i64 0, i64 0), i32* %2)
  store i32 1, i32* %3, align 4
  br label %13

13:                                               ; preds = %28, %0
  %14 = load i32, i32* %3, align 4
  %15 = load i32, i32* %2, align 4
  %16 = icmp sle i32 %14, %15
  br i1 %16, label %17, label %31

17:                                               ; preds = %13
  %18 = load i32, i32* %3, align 4
  %19 = sext i32 %18 to i64
  %20 = getelementptr inbounds [100 x float], [100 x float]* %4, i64 0, i64 %19
  %21 = load i32, i32* %3, align 4
  %22 = sext i32 %21 to i64
  %23 = getelementptr inbounds [100 x float], [100 x float]* %5, i64 0, i64 %22
  %24 = load i32, i32* %3, align 4
  %25 = sext i32 %24 to i64
  %26 = getelementptr inbounds [100 x float], [100 x float]* %6, i64 0, i64 %25
  %27 = call i32 (i8*, ...) @__isoc99_scanf(i8* getelementptr inbounds ([7 x i8], [7 x i8]* @.str.1, i64 0, i64 0), float* %20, float* %23, float* %26)
  br label %28

28:                                               ; preds = %17
  %29 = load i32, i32* %3, align 4
  %30 = add nsw i32 %29, 1
  store i32 %30, i32* %3, align 4
  br label %13

31:                                               ; preds = %13
  store i32 1, i32* %3, align 4
  br label %32

32:                                               ; preds = %185, %31
  %33 = load i32, i32* %3, align 4
  %34 = load i32, i32* %2, align 4
  %35 = icmp sle i32 %33, %34
  br i1 %35, label %36, label %188

36:                                               ; preds = %32
  %37 = load i32, i32* %3, align 4
  %38 = sext i32 %37 to i64
  %39 = getelementptr inbounds [100 x float], [100 x float]* %5, i64 0, i64 %38
  %40 = load float, float* %39, align 4
  %41 = load i32, i32* %3, align 4
  %42 = sext i32 %41 to i64
  %43 = getelementptr inbounds [100 x float], [100 x float]* %5, i64 0, i64 %42
  %44 = load float, float* %43, align 4
  %45 = fmul float %40, %44
  %46 = load i32, i32* %3, align 4
  %47 = sext i32 %46 to i64
  %48 = getelementptr inbounds [100 x float], [100 x float]* %4, i64 0, i64 %47
  %49 = load float, float* %48, align 4
  %50 = fmul float 4.000000e+00, %49
  %51 = load i32, i32* %3, align 4
  %52 = sext i32 %51 to i64
  %53 = getelementptr inbounds [100 x float], [100 x float]* %6, i64 0, i64 %52
  %54 = load float, float* %53, align 4
  %55 = fmul float %50, %54
  %56 = fsub float %45, %55
  %57 = fpext float %56 to double
  store double %57, double* %9, align 8
  %58 = load double, double* %9, align 8
  %59 = fcmp oge double %58, 0.000000e+00
  br i1 %59, label %60, label %144

60:                                               ; preds = %36
  %61 = load i32, i32* %3, align 4
  %62 = sext i32 %61 to i64
  %63 = getelementptr inbounds [100 x float], [100 x float]* %5, i64 0, i64 %62
  %64 = load float, float* %63, align 4
  %65 = fneg float %64
  %66 = fpext float %65 to double
  %67 = load i32, i32* %3, align 4
  %68 = sext i32 %67 to i64
  %69 = getelementptr inbounds [100 x float], [100 x float]* %5, i64 0, i64 %68
  %70 = load float, float* %69, align 4
  %71 = load i32, i32* %3, align 4
  %72 = sext i32 %71 to i64
  %73 = getelementptr inbounds [100 x float], [100 x float]* %5, i64 0, i64 %72
  %74 = load float, float* %73, align 4
  %75 = fmul float %70, %74
  %76 = load i32, i32* %3, align 4
  %77 = sext i32 %76 to i64
  %78 = getelementptr inbounds [100 x float], [100 x float]* %4, i64 0, i64 %77
  %79 = load float, float* %78, align 4
  %80 = fmul float 4.000000e+00, %79
  %81 = load i32, i32* %3, align 4
  %82 = sext i32 %81 to i64
  %83 = getelementptr inbounds [100 x float], [100 x float]* %6, i64 0, i64 %82
  %84 = load float, float* %83, align 4
  %85 = fmul float %80, %84
  %86 = fsub float %75, %85
  %87 = fpext float %86 to double
  %88 = call double @sqrt(double %87) #3
  %89 = fadd double %66, %88
  %90 = load i32, i32* %3, align 4
  %91 = sext i32 %90 to i64
  %92 = getelementptr inbounds [100 x float], [100 x float]* %4, i64 0, i64 %91
  %93 = load float, float* %92, align 4
  %94 = fmul float 2.000000e+00, %93
  %95 = fpext float %94 to double
  %96 = fdiv double %89, %95
  store double %96, double* %7, align 8
  %97 = load i32, i32* %3, align 4
  %98 = sext i32 %97 to i64
  %99 = getelementptr inbounds [100 x float], [100 x float]* %5, i64 0, i64 %98
  %100 = load float, float* %99, align 4
  %101 = fneg float %100
  %102 = fpext float %101 to double
  %103 = load i32, i32* %3, align 4
  %104 = sext i32 %103 to i64
  %105 = getelementptr inbounds [100 x float], [100 x float]* %5, i64 0, i64 %104
  %106 = load float, float* %105, align 4
  %107 = load i32, i32* %3, align 4
  %108 = sext i32 %107 to i64
  %109 = getelementptr inbounds [100 x float], [100 x float]* %5, i64 0, i64 %108
  %110 = load float, float* %109, align 4
  %111 = fmul float %106, %110
  %112 = load i32, i32* %3, align 4
  %113 = sext i32 %112 to i64
  %114 = getelementptr inbounds [100 x float], [100 x float]* %4, i64 0, i64 %113
  %115 = load float, float* %114, align 4
  %116 = fmul float 4.000000e+00, %115
  %117 = load i32, i32* %3, align 4
  %118 = sext i32 %117 to i64
  %119 = getelementptr inbounds [100 x float], [100 x float]* %6, i64 0, i64 %118
  %120 = load float, float* %119, align 4
  %121 = fmul float %116, %120
  %122 = fsub float %111, %121
  %123 = fpext float %122 to double
  %124 = call double @sqrt(double %123) #3
  %125 = fsub double %102, %124
  %126 = load i32, i32* %3, align 4
  %127 = sext i32 %126 to i64
  %128 = getelementptr inbounds [100 x float], [100 x float]* %4, i64 0, i64 %127
  %129 = load float, float* %128, align 4
  %130 = fmul float 2.000000e+00, %129
  %131 = fpext float %130 to double
  %132 = fdiv double %125, %131
  store double %132, double* %8, align 8
  %133 = load double, double* %7, align 8
  %134 = load double, double* %8, align 8
  %135 = fcmp oeq double %133, %134
  br i1 %135, label %136, label %139

136:                                              ; preds = %60
  %137 = load double, double* %7, align 8
  %138 = call i32 (i8*, ...) @printf(i8* getelementptr inbounds ([12 x i8], [12 x i8]* @.str.2, i64 0, i64 0), double %137)
  br label %143

139:                                              ; preds = %60
  %140 = load double, double* %7, align 8
  %141 = load double, double* %8, align 8
  %142 = call i32 (i8*, ...) @printf(i8* getelementptr inbounds ([17 x i8], [17 x i8]* @.str.3, i64 0, i64 0), double %140, double %141)
  br label %143

143:                                              ; preds = %139, %136
  br label %184

144:                                              ; preds = %36
  %145 = load double, double* %9, align 8
  %146 = fneg double %145
  %147 = call double @sqrt(double %146) #3
  %148 = load i32, i32* %3, align 4
  %149 = sext i32 %148 to i64
  %150 = getelementptr inbounds [100 x float], [100 x float]* %4, i64 0, i64 %149
  %151 = load float, float* %150, align 4
  %152 = fmul float 2.000000e+00, %151
  %153 = fpext float %152 to double
  %154 = fdiv double %147, %153
  store double %154, double* %11, align 8
  %155 = load i32, i32* %3, align 4
  %156 = sext i32 %155 to i64
  %157 = getelementptr inbounds [100 x float], [100 x float]* %5, i64 0, i64 %156
  %158 = load float, float* %157, align 4
  %159 = fpext float %158 to double
  %160 = fcmp oeq double %159, 0.000000e+00
  br i1 %160, label %161, label %165

161:                                              ; preds = %144
  %162 = load double, double* %11, align 8
  %163 = load double, double* %11, align 8
  %164 = call i32 (i8*, ...) @printf(i8* getelementptr inbounds ([35 x i8], [35 x i8]* @.str.4, i64 0, i64 0), double %162, double %163)
  br label %183

165:                                              ; preds = %144
  %166 = load i32, i32* %3, align 4
  %167 = sext i32 %166 to i64
  %168 = getelementptr inbounds [100 x float], [100 x float]* %5, i64 0, i64 %167
  %169 = load float, float* %168, align 4
  %170 = fneg float %169
  %171 = load i32, i32* %3, align 4
  %172 = sext i32 %171 to i64
  %173 = getelementptr inbounds [100 x float], [100 x float]* %4, i64 0, i64 %172
  %174 = load float, float* %173, align 4
  %175 = fmul float 2.000000e+00, %174
  %176 = fdiv float %170, %175
  %177 = fpext float %176 to double
  store double %177, double* %10, align 8
  %178 = load double, double* %10, align 8
  %179 = load double, double* %11, align 8
  %180 = load double, double* %10, align 8
  %181 = load double, double* %11, align 8
  %182 = call i32 (i8*, ...) @printf(i8* getelementptr inbounds ([29 x i8], [29 x i8]* @.str.5, i64 0, i64 0), double %178, double %179, double %180, double %181)
  br label %183

183:                                              ; preds = %165, %161
  br label %184

184:                                              ; preds = %183, %143
  br label %185

185:                                              ; preds = %184
  %186 = load i32, i32* %3, align 4
  %187 = add nsw i32 %186, 1
  store i32 %187, i32* %3, align 4
  br label %32

188:                                              ; preds = %32
  ret i32 0
}

declare dso_local i32 @__isoc99_scanf(i8*, ...) #1

; Function Attrs: nounwind
declare dso_local double @sqrt(double) #2

declare dso_local i32 @printf(i8*, ...) #1


!llvm.module.flags = !{!0}
!llvm.ident = !{!1}

!0 = !{i32 1, !"wchar_size", i32 4}
!1 = !{!"clang version 10.0.0-4ubuntu1 "}
