; ModuleID = 'source-C-CXX/26/832.c'
source_filename = "source-C-CXX/26/832.c"
target datalayout = "e-m:e-p270:32:32-p271:32:32-p272:64:64-i64:64-f80:128-n8:16:32:64-S128"
target triple = "x86_64-pc-linux-gnu"

@.str = private unnamed_addr constant [3 x i8] c"%d\00", align 1
@.str.1 = private unnamed_addr constant [7 x i8] c"%f%f%f\00", align 1
@.str.2 = private unnamed_addr constant [12 x i8] c"x1=x2=%.5f\0A\00", align 1
@.str.3 = private unnamed_addr constant [17 x i8] c"x1=%.5f;x2=%.5f\0A\00", align 1
@.str.4 = private unnamed_addr constant [35 x i8] c"x1=0.00000+%.5fi;x2=0.00000-%.5fi\0A\00", align 1
@.str.5 = private unnamed_addr constant [29 x i8] c"x1=%.5f+%.5fi;x2=%.5f-%.5fi\0A\00", align 1

; Function Attrs: nofree nounwind sspstrong uwtable
define dso_local i32 @main() local_unnamed_addr #0 {
  %1 = alloca i32, align 4
  %2 = alloca [100 x float], align 16
  %3 = alloca [100 x float], align 16
  %4 = alloca [100 x float], align 16
  %5 = bitcast i32* %1 to i8*
  call void @llvm.lifetime.start.p0i8(i64 4, i8* nonnull %5) #4
  %6 = bitcast [100 x float]* %2 to i8*
  call void @llvm.lifetime.start.p0i8(i64 400, i8* nonnull %6) #4
  %7 = bitcast [100 x float]* %3 to i8*
  call void @llvm.lifetime.start.p0i8(i64 400, i8* nonnull %7) #4
  %8 = bitcast [100 x float]* %4 to i8*
  call void @llvm.lifetime.start.p0i8(i64 400, i8* nonnull %8) #4
  %9 = call i32 (i8*, ...) @__isoc99_scanf(i8* getelementptr inbounds ([3 x i8], [3 x i8]* @.str, i64 0, i64 0), i32* nonnull %1)
  %10 = load i32, i32* %1, align 4, !tbaa !5
  %11 = icmp slt i32 %10, 1
  br i1 %11, label %92, label %14

12:                                               ; preds = %14
  %13 = icmp slt i32 %21, 1
  br i1 %13, label %92, label %24

14:                                               ; preds = %0, %14
  %15 = phi i64 [ %20, %14 ], [ 1, %0 ]
  %16 = getelementptr inbounds [100 x float], [100 x float]* %2, i64 0, i64 %15
  %17 = getelementptr inbounds [100 x float], [100 x float]* %3, i64 0, i64 %15
  %18 = getelementptr inbounds [100 x float], [100 x float]* %4, i64 0, i64 %15
  %19 = call i32 (i8*, ...) @__isoc99_scanf(i8* getelementptr inbounds ([7 x i8], [7 x i8]* @.str.1, i64 0, i64 0), float* nonnull %16, float* nonnull %17, float* nonnull %18)
  %20 = add nuw nsw i64 %15, 1
  %21 = load i32, i32* %1, align 4, !tbaa !5
  %22 = sext i32 %21 to i64
  %23 = icmp slt i64 %15, %22
  br i1 %23, label %14, label %12, !llvm.loop !9

24:                                               ; preds = %12, %87
  %25 = phi i64 [ %88, %87 ], [ 1, %12 ]
  %26 = getelementptr inbounds [100 x float], [100 x float]* %3, i64 0, i64 %25
  %27 = load float, float* %26, align 4, !tbaa !11
  %28 = fmul float %27, %27
  %29 = getelementptr inbounds [100 x float], [100 x float]* %2, i64 0, i64 %25
  %30 = load float, float* %29, align 4, !tbaa !11
  %31 = fmul float %30, 4.000000e+00
  %32 = getelementptr inbounds [100 x float], [100 x float]* %4, i64 0, i64 %25
  %33 = load float, float* %32, align 4, !tbaa !11
  %34 = fmul float %31, %33
  %35 = fsub float %28, %34
  %36 = fpext float %35 to double
  %37 = fcmp ult float %35, 0.000000e+00
  br i1 %37, label %71, label %38

38:                                               ; preds = %24
  %39 = call double @sqrt(double %36) #4
  %40 = load float, float* %29, align 4, !tbaa !11
  %41 = load float, float* %26, align 4, !tbaa !11
  %42 = insertelement <2 x float> poison, float %27, i32 0
  %43 = insertelement <2 x float> %42, float %41, i32 1
  %44 = fneg <2 x float> %43
  %45 = fpext <2 x float> %44 to <2 x double>
  %46 = fmul float %41, %41
  %47 = fmul float %40, 4.000000e+00
  %48 = load float, float* %32, align 4, !tbaa !11
  %49 = fmul float %47, %48
  %50 = fsub float %46, %49
  %51 = fpext float %50 to double
  %52 = call double @sqrt(double %51) #4
  %53 = insertelement <2 x double> poison, double %39, i32 0
  %54 = insertelement <2 x double> %53, double %52, i32 1
  %55 = fadd <2 x double> %54, %45
  %56 = fsub <2 x double> %45, %54
  %57 = shufflevector <2 x double> %55, <2 x double> %56, <2 x i32> <i32 0, i32 3>
  %58 = load float, float* %29, align 4, !tbaa !11
  %59 = insertelement <2 x float> poison, float %40, i32 0
  %60 = insertelement <2 x float> %59, float %58, i32 1
  %61 = fmul <2 x float> %60, <float 2.000000e+00, float 2.000000e+00>
  %62 = fpext <2 x float> %61 to <2 x double>
  %63 = fdiv <2 x double> %57, %62
  %64 = extractelement <2 x double> %63, i32 0
  %65 = extractelement <2 x double> %63, i32 1
  %66 = fcmp oeq double %64, %65
  br i1 %66, label %67, label %69

67:                                               ; preds = %38
  %68 = call i32 (i8*, ...) @printf(i8* nonnull dereferenceable(1) getelementptr inbounds ([12 x i8], [12 x i8]* @.str.2, i64 0, i64 0), double %64)
  br label %87

69:                                               ; preds = %38
  %70 = call i32 (i8*, ...) @printf(i8* nonnull dereferenceable(1) getelementptr inbounds ([17 x i8], [17 x i8]* @.str.3, i64 0, i64 0), double %64, double %65)
  br label %87

71:                                               ; preds = %24
  %72 = fneg double %36
  %73 = call double @sqrt(double %72) #4
  %74 = load float, float* %29, align 4, !tbaa !11
  %75 = fmul float %74, 2.000000e+00
  %76 = fpext float %75 to double
  %77 = fdiv double %73, %76
  %78 = load float, float* %26, align 4, !tbaa !11
  %79 = fcmp oeq float %78, 0.000000e+00
  br i1 %79, label %80, label %82

80:                                               ; preds = %71
  %81 = call i32 (i8*, ...) @printf(i8* nonnull dereferenceable(1) getelementptr inbounds ([35 x i8], [35 x i8]* @.str.4, i64 0, i64 0), double %77, double %77)
  br label %87

82:                                               ; preds = %71
  %83 = fneg float %78
  %84 = fdiv float %83, %75
  %85 = fpext float %84 to double
  %86 = call i32 (i8*, ...) @printf(i8* nonnull dereferenceable(1) getelementptr inbounds ([29 x i8], [29 x i8]* @.str.5, i64 0, i64 0), double %85, double %77, double %85, double %77)
  br label %87

87:                                               ; preds = %69, %67, %82, %80
  %88 = add nuw nsw i64 %25, 1
  %89 = load i32, i32* %1, align 4, !tbaa !5
  %90 = sext i32 %89 to i64
  %91 = icmp slt i64 %25, %90
  br i1 %91, label %24, label %92, !llvm.loop !13

92:                                               ; preds = %87, %0, %12
  call void @llvm.lifetime.end.p0i8(i64 400, i8* nonnull %8) #4
  call void @llvm.lifetime.end.p0i8(i64 400, i8* nonnull %7) #4
  call void @llvm.lifetime.end.p0i8(i64 400, i8* nonnull %6) #4
  call void @llvm.lifetime.end.p0i8(i64 4, i8* nonnull %5) #4
  ret i32 0
}

; Function Attrs: argmemonly mustprogress nofree nosync nounwind willreturn
declare void @llvm.lifetime.start.p0i8(i64 immarg, i8* nocapture) #1

; Function Attrs: nofree nounwind
declare noundef i32 @__isoc99_scanf(i8* nocapture noundef readonly, ...) local_unnamed_addr #2

; Function Attrs: mustprogress nofree nounwind willreturn
declare double @sqrt(double) local_unnamed_addr #3

; Function Attrs: nofree nounwind
declare noundef i32 @printf(i8* nocapture noundef readonly, ...) local_unnamed_addr #2

; Function Attrs: argmemonly mustprogress nofree nosync nounwind willreturn
declare void @llvm.lifetime.end.p0i8(i64 immarg, i8* nocapture) #1


!llvm.module.flags = !{!0, !1, !2, !3}
!llvm.ident = !{!4}

!0 = !{i32 1, !"wchar_size", i32 4}
!1 = !{i32 7, !"PIC Level", i32 2}
!2 = !{i32 7, !"PIE Level", i32 2}
!3 = !{i32 7, !"uwtable", i32 1}
!4 = !{!"clang version 13.0.0"}
!5 = !{!6, !6, i64 0}
!6 = !{!"int", !7, i64 0}
!7 = !{!"omnipotent char", !8, i64 0}
!8 = !{!"Simple C/C++ TBAA"}
!9 = distinct !{!9, !10}
!10 = !{!"llvm.loop.mustprogress"}
!11 = !{!12, !12, i64 0}
!12 = !{!"float", !7, i64 0}
!13 = distinct !{!13, !10}
